target datalayout = "e-m:e-p270:32:32-p271:32:32-p272:64:64-i64:64-i128:128-f80:128-n8:16:32:64-S128"
target triple = "x86_64-pc-linux-gnu"

%struct.rb_data_type_struct = type { ptr, %struct.anon, ptr, ptr, i64 }
%struct.anon = type { ptr, ptr, ptr, ptr, [1 x ptr] }

@ossl_ssl_session_type = constant %struct.rb_data_type_struct { ptr @.str, %struct.anon { ptr null, ptr @ossl_ssl_session_free, ptr null, ptr null, [1 x ptr] zeroinitializer }, ptr null, ptr null, i64 33 }, align 8
@rb_eRuntimeError = external global i64, align 8
@.str.18 = private unnamed_addr constant [32 x i8] c"SSL Session wasn't initialized.\00", align 1

; Function Attrs: nounwind sspstrong uwtable
define internal i32 @ossl_SSL_SESSION_cmp(ptr noundef %0, ptr noundef %1) #0 {
  %3 = alloca i32, align 4
  %4 = alloca ptr, align 8
  %5 = alloca ptr, align 8
  %6 = alloca i32, align 4
  %7 = alloca ptr, align 8
  %8 = alloca i32, align 4
  %9 = alloca ptr, align 8
  %10 = alloca i32, align 4
  store ptr %0, ptr %4, align 8, !tbaa !18
  store ptr %1, ptr %5, align 8, !tbaa !18
  call void @llvm.lifetime.start.p0(i64 4, ptr %6) #15
  call void @llvm.lifetime.start.p0(i64 8, ptr %7) #15
  %11 = load ptr, ptr %4, align 8, !tbaa !18
  %12 = call ptr @SSL_SESSION_get_id(ptr noundef %11, ptr noundef %6)
  store ptr %12, ptr %7, align 8, !tbaa !22
  call void @llvm.lifetime.start.p0(i64 4, ptr %8) #15
  call void @llvm.lifetime.start.p0(i64 8, ptr %9) #15
  %13 = load ptr, ptr %5, align 8, !tbaa !18
  %14 = call ptr @SSL_SESSION_get_id(ptr noundef %13, ptr noundef %8)
  store ptr %14, ptr %9, align 8, !tbaa !22
  %15 = load ptr, ptr %4, align 8, !tbaa !18
  %16 = call i32 @SSL_SESSION_get_protocol_version(ptr noundef %15)
  %17 = load ptr, ptr %5, align 8, !tbaa !18
  %18 = call i32 @SSL_SESSION_get_protocol_version(ptr noundef %17)
  %19 = icmp ne i32 %16, %18
  br i1 %19, label %20, label %21

20:                                               ; preds = %2
  store i32 1, ptr %3, align 4
  store i32 1, ptr %10, align 4
  br label %32

21:                                               ; preds = %2
  %22 = load i32, ptr %6, align 4, !tbaa !24
  %23 = load i32, ptr %8, align 4, !tbaa !24
  %24 = icmp ne i32 %22, %23
  br i1 %24, label %25, label %26

25:                                               ; preds = %21
  store i32 1, ptr %3, align 4
  store i32 1, ptr %10, align 4
  br label %32

26:                                               ; preds = %21
  %27 = load ptr, ptr %7, align 8, !tbaa !22
  %28 = load ptr, ptr %9, align 8, !tbaa !22
  %29 = load i32, ptr %6, align 4, !tbaa !24
  %30 = zext i32 %29 to i64
  %31 = call i32 @CRYPTO_memcmp(ptr noundef %27, ptr noundef %28, i64 noundef %30)
  store i32 %31, ptr %3, align 4
  store i32 1, ptr %10, align 4
  br label %32

32:                                               ; preds = %26, %25, %20
  call void @llvm.lifetime.end.p0(i64 8, ptr %9) #15
  call void @llvm.lifetime.end.p0(i64 4, ptr %8) #15
  call void @llvm.lifetime.end.p0(i64 8, ptr %7) #15
  call void @llvm.lifetime.end.p0(i64 4, ptr %6) #15
  %33 = load i32, ptr %3, align 4
  ret i32 %33
}

; Function Attrs: nounwind sspstrong uwtable
define internal i64 @ossl_ssl_session_eq(i64 noundef %0, i64 noundef %1) #0 {
  %3 = alloca i64, align 8
  %4 = alloca i64, align 8
  %5 = alloca i64, align 8
  %6 = alloca ptr, align 8
  %7 = alloca ptr, align 8
  %8 = alloca i32, align 4
  store i64 %0, ptr %4, align 8, !tbaa !10
  store i64 %1, ptr %5, align 8, !tbaa !10
  call void @llvm.lifetime.start.p0(i64 8, ptr %6) #15
  call void @llvm.lifetime.start.p0(i64 8, ptr %7) #15
  br label %9

9:                                                ; preds = %2
  %10 = load i64, ptr %4, align 8, !tbaa !10
  %11 = call ptr @rb_check_typeddata(i64 noundef %10, ptr noundef @ossl_ssl_session_type)
  store ptr %11, ptr %6, align 8, !tbaa !18
  %12 = load ptr, ptr %6, align 8, !tbaa !18
  %13 = icmp ne ptr %12, null
  br i1 %13, label %16, label %14

14:                                               ; preds = %9
  %15 = load i64, ptr @rb_eRuntimeError, align 8, !tbaa !10
  call void (i64, ptr, ...) @ossl_raise(i64 noundef %15, ptr noundef @.str.18) #16
  unreachable

16:                                               ; preds = %9
  br label %17

17:                                               ; preds = %16
  br label %18

18:                                               ; preds = %17
  br label %19

19:                                               ; preds = %18
  %20 = load i64, ptr %5, align 8, !tbaa !10
  %21 = call ptr @rb_check_typeddata(i64 noundef %20, ptr noundef @ossl_ssl_session_type)
  store ptr %21, ptr %7, align 8, !tbaa !18
  %22 = load ptr, ptr %7, align 8, !tbaa !18
  %23 = icmp ne ptr %22, null
  br i1 %23, label %26, label %24

24:                                               ; preds = %19
  %25 = load i64, ptr @rb_eRuntimeError, align 8, !tbaa !10
  call void (i64, ptr, ...) @ossl_raise(i64 noundef %25, ptr noundef @.str.18) #16
  unreachable

26:                                               ; preds = %19
  br label %27

27:                                               ; preds = %26
  br label %28

28:                                               ; preds = %27
  %29 = load ptr, ptr %6, align 8, !tbaa !18
  %30 = load ptr, ptr %7, align 8, !tbaa !18
  %31 = call i32 @ossl_SSL_SESSION_cmp(ptr noundef %29, ptr noundef %30)
  switch i32 %31, label %33 [
    i32 0, label %32
  ]

32:                                               ; preds = %28
  store i64 20, ptr %3, align 8
  store i32 1, ptr %8, align 4
  br label %34

33:                                               ; preds = %28
  store i64 0, ptr %3, align 8
  store i32 1, ptr %8, align 4
  br label %34

34:                                               ; preds = %33, %32
  call void @llvm.lifetime.end.p0(i64 8, ptr %7) #15
  call void @llvm.lifetime.end.p0(i64 8, ptr %6) #15
  %35 = load i64, ptr %3, align 8
  ret i64 %35
}