; Function Attrs: nounwind sspstrong uwtable
define internal range(i64 0, 21) i64 @ossl_ssl_session_eq(i64 noundef %0, i64 noundef %1) #0 {
  %3 = alloca i32, align 4
  %4 = alloca i32, align 4
  %5 = tail call ptr @rb_check_typeddata(i64 noundef %0, ptr noundef nonnull @ossl_ssl_session_type) #4
  %.not = icmp eq ptr %5, null
  br i1 %.not, label %6, label %8

6:                                                ; preds = %2
  %7 = load i64, ptr @rb_eRuntimeError, align 8, !tbaa !6
  tail call void (i64, ptr, ...) @ossl_raise(i64 noundef %7, ptr noundef nonnull @.str.18) #5
  unreachable

8:                                                ; preds = %2
  %9 = tail call ptr @rb_check_typeddata(i64 noundef %1, ptr noundef nonnull @ossl_ssl_session_type) #4
  %.not8 = icmp eq ptr %9, null
  br i1 %.not8, label %10, label %12

10:                                               ; preds = %8
  %11 = load i64, ptr @rb_eRuntimeError, align 8, !tbaa !6
  tail call void (i64, ptr, ...) @ossl_raise(i64 noundef %11, ptr noundef nonnull @.str.18) #5
  unreachable

12:                                               ; preds = %8
  call void @llvm.lifetime.start.p0(i64 4, ptr nonnull %3) #4
  %13 = call ptr @SSL_SESSION_get_id(ptr noundef nonnull %5, ptr noundef nonnull %3) #4
  call void @llvm.lifetime.start.p0(i64 4, ptr nonnull %4) #4
  %14 = call ptr @SSL_SESSION_get_id(ptr noundef nonnull %9, ptr noundef nonnull %4) #4
  %15 = call i32 @SSL_SESSION_get_protocol_version(ptr noundef nonnull %5) #4
  %16 = call i32 @SSL_SESSION_get_protocol_version(ptr noundef nonnull %9) #4
  %.not.i = icmp eq i32 %15, %16
  br i1 %.not.i, label %17, label %ossl_SSL_SESSION_cmp.exit.thread

17:                                               ; preds = %12
  %18 = load i32, ptr %3, align 4, !tbaa !19
  %19 = load i32, ptr %4, align 4, !tbaa !19
  %.not7.i = icmp eq i32 %18, %19
  br i1 %.not7.i, label %ossl_SSL_SESSION_cmp.exit, label %ossl_SSL_SESSION_cmp.exit.thread

ossl_SSL_SESSION_cmp.exit.thread:                 ; preds = %12, %17
  call void @llvm.lifetime.end.p0(i64 4, ptr nonnull %4) #4
  call void @llvm.lifetime.end.p0(i64 4, ptr nonnull %3) #4
  br label %22

ossl_SSL_SESSION_cmp.exit:                        ; preds = %17
  %20 = zext i32 %18 to i64
  %21 = call i32 @CRYPTO_memcmp(ptr noundef %13, ptr noundef %14, i64 noundef %20) #4
  call void @llvm.lifetime.end.p0(i64 4, ptr nonnull %4) #4
  call void @llvm.lifetime.end.p0(i64 4, ptr nonnull %3) #4
  %.fr = freeze i32 %21
  %cond = icmp eq i32 %.fr, 0
  %spec.select = select i1 %cond, i64 20, i64 0
  br label %22

22:                                               ; preds = %ossl_SSL_SESSION_cmp.exit, %ossl_SSL_SESSION_cmp.exit.thread
  %23 = phi i64 [ 0, %ossl_SSL_SESSION_cmp.exit.thread ], [ %spec.select, %ossl_SSL_SESSION_cmp.exit ]
  ret i64 %23
}